target datalayout = "e-m:e-p270:32:32-p271:32:32-p272:64:64-i64:64-i128:128-f80:128-n8:16:32:64-S128"
target triple = "x86_64-pc-linux-gnu"

%class.RenderHelper = type { i32, i32, i32, i32, [6 x i32], i32, ptr, ptr, ptr, ptr, float, float }

@.str.14 = private unnamed_addr constant [18 x i8] c"GL Initialization\00", align 1
@.str.15 = private unnamed_addr constant [26 x i8] c"GL_EXT_framebuffer_object\00", align 1
@.str.16 = private unnamed_addr constant [21 x i8] c"GL_ARB_vertex_shader\00", align 1
@.str.17 = private unnamed_addr constant [23 x i8] c"GL_ARB_fragment_shader\00", align 1
@.str.18 = private unnamed_addr constant [22 x i8] c"GL_ARB_shader_objects\00", align 1
@.str.19 = private unnamed_addr constant [24 x i8] c"GL_ARB_shading_language\00", align 1
@.str.20 = private unnamed_addr constant [32 x i8] c"GL_ARB_texture_non_power_of_two\00", align 1
@.str.21 = private unnamed_addr constant [28 x i8] c"GL_ARB_vertex_buffer_object\00", align 1
@__const._ZN12RenderHelper12initializeGLEPFbiPKcE.light_position = private unnamed_addr constant [4 x float] [float -6.000000e+02, float 5.000000e+02, float 7.000000e+02, float 0.000000e+00], align 16
@__const._ZN12RenderHelper12initializeGLEPFbiPKcE.light_ambient = private unnamed_addr constant [4 x float] [float 0x3FB99999A0000000, float 0x3FB99999A0000000, float 0x3FB99999A0000000, float 1.000000e+00], align 16
@__const._ZN12RenderHelper12initializeGLEPFbiPKcE.light_diffuse = private unnamed_addr constant [4 x float] [float 0x3FE99999A0000000, float 0x3FE99999A0000000, float 0x3FE99999A0000000, float 1.000000e+00], align 16
@__const._ZN12RenderHelper12initializeGLEPFbiPKcE.light_specular = private unnamed_addr constant [4 x float] [float 0x3FECCCCCC0000000, float 0x3FECCCCCC0000000, float 0x3FECCCCCC0000000, float 1.000000e+00], align 16
@.str.22 = private unnamed_addr constant [23 x i8] c"GL Initialization done\00", align 1
@.str.23 = private unnamed_addr constant [44 x i8] c"void main() { gl_Position = ftransform(); }\00", align 1
@.str.24 = private unnamed_addr constant [57 x i8] c"void main() { gl_FragColor = vec4(1.0, 0.0, 0.0, 1.0); }\00", align 1
@.str.25 = private unnamed_addr constant [103 x i8] c"varying vec3 normal; void main() { normal = gl_NormalMatrix * gl_Normal;\09gl_Position = ftransform(); }\00", align 1
@.str.26 = private unnamed_addr constant [129 x i8] c"varying vec3 normal; void main() { vec3 color = normalize(normal); color = color * 0.5 + 0.5; gl_FragColor = vec4(color, 1.0); }\00", align 1
@.str.27 = private unnamed_addr constant [82 x i8] c"varying vec4 color; void main() { gl_Position = ftransform(); color = gl_Color; }\00", align 1
@.str.28 = private unnamed_addr constant [58 x i8] c"varying vec4 color; void main() { gl_FragColor = color; }\00", align 1
@__glewGenBuffersARB = external global ptr, align 8
@.str.29 = private unnamed_addr constant [16 x i8] c"Shaders created\00", align 1

; Function Attrs: mustprogress uwtable
define noundef i32 @_ZN12RenderHelper12initializeGLEPFbiPKcE(ptr noundef nonnull align 8 dereferenceable(88) %0, ptr noundef %1) #5 align 2 {
  %3 = alloca i32, align 4
  %4 = alloca ptr, align 8
  %5 = alloca ptr, align 8
  %6 = alloca [4 x float], align 16
  %7 = alloca [4 x float], align 16
  %8 = alloca [4 x float], align 16
  %9 = alloca [4 x float], align 16
  store ptr %0, ptr %4, align 8
  store ptr %1, ptr %5, align 8
  %10 = load ptr, ptr %4, align 8
  %11 = load ptr, ptr %5, align 8
  %12 = icmp ne ptr %11, null
  br i1 %12, label %13, label %16

13:                                               ; preds = %2
  %14 = load ptr, ptr %5, align 8
  %15 = call noundef zeroext i1 %14(i32 noundef 0, ptr noundef @.str.14)
  br label %16

16:                                               ; preds = %13, %2
  %17 = call noundef zeroext i1 @_ZN19GLExtensionsManager34initializeGLextensions_notThrowingEv()
  br i1 %17, label %19, label %18

18:                                               ; preds = %16
  store i32 -1, ptr %3, align 4
  br label %78

19:                                               ; preds = %16
  %20 = call zeroext i8 @glewIsSupported(ptr noundef @.str.15)
  %21 = icmp ne i8 %20, 0
  br i1 %21, label %23, label %22

22:                                               ; preds = %19
  store i32 -1, ptr %3, align 4
  br label %78

23:                                               ; preds = %19
  %24 = call zeroext i8 @glewIsSupported(ptr noundef @.str.16)
  %25 = icmp ne i8 %24, 0
  br i1 %25, label %26, label %35

26:                                               ; preds = %23
  %27 = call zeroext i8 @glewIsSupported(ptr noundef @.str.17)
  %28 = icmp ne i8 %27, 0
  br i1 %28, label %29, label %35

29:                                               ; preds = %26
  %30 = call zeroext i8 @glewIsSupported(ptr noundef @.str.18)
  %31 = icmp ne i8 %30, 0
  br i1 %31, label %32, label %35

32:                                               ; preds = %29
  %33 = call zeroext i8 @glewIsSupported(ptr noundef @.str.19)
  %34 = icmp ne i8 %33, 0
  br i1 %34, label %36, label %35

35:                                               ; preds = %32, %29, %26, %23
  br label %36

36:                                               ; preds = %35, %32
  %37 = call zeroext i8 @glewIsSupported(ptr noundef @.str.20)
  %38 = icmp ne i8 %37, 0
  br i1 %38, label %40, label %39

39:                                               ; preds = %36
  store i32 -1, ptr %3, align 4
  br label %78

40:                                               ; preds = %36
  %41 = call zeroext i8 @glewIsSupported(ptr noundef @.str.21)
  %42 = icmp ne i8 %41, 0
  br i1 %42, label %44, label %43

43:                                               ; preds = %40
  store i32 -1, ptr %3, align 4
  br label %78

44:                                               ; preds = %40
  call void @glClearColor(float noundef 0.000000e+00, float noundef 0.000000e+00, float noundef 0.000000e+00, float noundef 0.000000e+00)
  call void @llvm.memcpy.p0.p0.i64(ptr align 16 %6, ptr align 16 @__const._ZN12RenderHelper12initializeGLEPFbiPKcE.light_position, i64 16, i1 false)
  call void @llvm.memcpy.p0.p0.i64(ptr align 16 %7, ptr align 16 @__const._ZN12RenderHelper12initializeGLEPFbiPKcE.light_ambient, i64 16, i1 false)
  call void @llvm.memcpy.p0.p0.i64(ptr align 16 %8, ptr align 16 @__const._ZN12RenderHelper12initializeGLEPFbiPKcE.light_diffuse, i64 16, i1 false)
  call void @llvm.memcpy.p0.p0.i64(ptr align 16 %9, ptr align 16 @__const._ZN12RenderHelper12initializeGLEPFbiPKcE.light_specular, i64 16, i1 false)
  call void @glEnable(i32 noundef 2896)
  %45 = getelementptr inbounds [4 x float], ptr %6, i64 0, i64 0
  call void @glLightfv(i32 noundef 16384, i32 noundef 4611, ptr noundef %45)
  %46 = getelementptr inbounds [4 x float], ptr %7, i64 0, i64 0
  call void @glLightfv(i32 noundef 16384, i32 noundef 4608, ptr noundef %46)
  %47 = getelementptr inbounds [4 x float], ptr %8, i64 0, i64 0
  call void @glLightfv(i32 noundef 16384, i32 noundef 4609, ptr noundef %47)
  %48 = getelementptr inbounds [4 x float], ptr %9, i64 0, i64 0
  call void @glLightfv(i32 noundef 16384, i32 noundef 4610, ptr noundef %48)
  call void @glEnable(i32 noundef 16384)
  call void @glDisable(i32 noundef 2896)
  call void @glEnable(i32 noundef 2929)
  call void @glEnable(i32 noundef 2884)
  call void @glEnable(i32 noundef 2977)
  call void @glDepthRange(double noundef 0.000000e+00, double noundef 1.000000e+00)
  call void @glBlendFunc(i32 noundef 770, i32 noundef 771)
  call void @glEnable(i32 noundef 3042)
  call void @glHint(i32 noundef 3155, i32 noundef 4354)
  call void @glEnable(i32 noundef 2881)
  call void @glShadeModel(i32 noundef 7425)
  call void @glDisable(i32 noundef 2881)
  %49 = load ptr, ptr %5, align 8
  %50 = icmp ne ptr %49, null
  br i1 %50, label %51, label %54

51:                                               ; preds = %44
  %52 = load ptr, ptr %5, align 8
  %53 = call noundef zeroext i1 %52(i32 noundef 10, ptr noundef @.str.22)
  br label %54

54:                                               ; preds = %51, %44
  %55 = call noundef i32 @_ZN12RenderHelper13createShadersEPKcS1_(ptr noundef nonnull align 8 dereferenceable(88) %10, ptr noundef @.str.23, ptr noundef @.str.24)
  %56 = getelementptr inbounds %class.RenderHelper, ptr %10, i32 0, i32 4
  %57 = getelementptr inbounds [6 x i32], ptr %56, i64 0, i64 0
  store i32 %55, ptr %57, align 8
  %58 = call noundef i32 @_ZN12RenderHelper13createShadersEPKcS1_(ptr noundef nonnull align 8 dereferenceable(88) %10, ptr noundef @.str.25, ptr noundef @.str.26)
  %59 = getelementptr inbounds %class.RenderHelper, ptr %10, i32 0, i32 4
  %60 = getelementptr inbounds [6 x i32], ptr %59, i64 0, i64 1
  store i32 %58, ptr %60, align 4
  %61 = call noundef i32 @_ZN12RenderHelper13createShadersEPKcS1_(ptr noundef nonnull align 8 dereferenceable(88) %10, ptr noundef @.str.27, ptr noundef @.str.28)
  %62 = getelementptr inbounds %class.RenderHelper, ptr %10, i32 0, i32 4
  %63 = getelementptr inbounds [6 x i32], ptr %62, i64 0, i64 2
  store i32 %61, ptr %63, align 8
  %64 = load ptr, ptr @__glewGenBuffersARB, align 8
  %65 = getelementptr inbounds %class.RenderHelper, ptr %10, i32 0, i32 0
  call void %64(i32 noundef 1, ptr noundef %65)
  %66 = load ptr, ptr @__glewGenBuffersARB, align 8
  %67 = getelementptr inbounds %class.RenderHelper, ptr %10, i32 0, i32 1
  call void %66(i32 noundef 1, ptr noundef %67)
  %68 = load ptr, ptr @__glewGenBuffersARB, align 8
  %69 = getelementptr inbounds %class.RenderHelper, ptr %10, i32 0, i32 2
  call void %68(i32 noundef 1, ptr noundef %69)
  %70 = load ptr, ptr @__glewGenBuffersARB, align 8
  %71 = getelementptr inbounds %class.RenderHelper, ptr %10, i32 0, i32 3
  call void %70(i32 noundef 1, ptr noundef %71)
  %72 = load ptr, ptr %5, align 8
  %73 = icmp ne ptr %72, null
  br i1 %73, label %74, label %77

74:                                               ; preds = %54
  %75 = load ptr, ptr %5, align 8
  %76 = call noundef zeroext i1 %75(i32 noundef 20, ptr noundef @.str.29)
  br label %77

77:                                               ; preds = %74, %54
  store i32 0, ptr %3, align 4
  br label %78

78:                                               ; preds = %77, %43, %39, %22, %18
  %79 = load i32, ptr %3, align 4
  ret i32 %79
}