; Function Attrs: mustprogress uwtable
define noundef i32 @_ZN12RenderHelper12initializeGLEPFbiPKcE(ptr noundef nonnull align 8 dereferenceable(88) %0, ptr noundef readonly %1) local_unnamed_addr #9 align 2 {
  %3 = alloca [4 x float], align 16
  %4 = alloca [4 x float], align 16
  %5 = alloca [4 x float], align 16
  %6 = alloca [4 x float], align 16
  %.not = icmp eq ptr %1, null
  br i1 %.not, label %9, label %7

7:                                                ; preds = %2
  %8 = tail call noundef zeroext i1 %1(i32 noundef 0, ptr noundef nonnull @.str.14)
  br label %9

9:                                                ; preds = %7, %2
  %10 = tail call noundef zeroext i1 @_ZN19GLExtensionsManager34initializeGLextensions_notThrowingEv()
  br i1 %10, label %11, label %44

11:                                               ; preds = %9
  %12 = tail call zeroext i8 @glewIsSupported(ptr noundef nonnull @.str.15)
  %.not8 = icmp eq i8 %12, 0
  br i1 %.not8, label %44, label %13

13:                                               ; preds = %11
  %14 = tail call zeroext i8 @glewIsSupported(ptr noundef nonnull @.str.16)
  %.not9 = icmp eq i8 %14, 0
  br i1 %.not9, label %21, label %15

15:                                               ; preds = %13
  %16 = tail call zeroext i8 @glewIsSupported(ptr noundef nonnull @.str.17)
  %.not10 = icmp eq i8 %16, 0
  br i1 %.not10, label %21, label %17

17:                                               ; preds = %15
  %18 = tail call zeroext i8 @glewIsSupported(ptr noundef nonnull @.str.18)
  %.not11 = icmp eq i8 %18, 0
  br i1 %.not11, label %21, label %19

19:                                               ; preds = %17
  %20 = tail call zeroext i8 @glewIsSupported(ptr noundef nonnull @.str.19)
  br label %21

21:                                               ; preds = %19, %13, %15, %17
  %22 = tail call zeroext i8 @glewIsSupported(ptr noundef nonnull @.str.20)
  %.not12 = icmp eq i8 %22, 0
  br i1 %.not12, label %44, label %23

23:                                               ; preds = %21
  %24 = tail call zeroext i8 @glewIsSupported(ptr noundef nonnull @.str.21)
  %.not13 = icmp eq i8 %24, 0
  br i1 %.not13, label %44, label %25

25:                                               ; preds = %23
  tail call void @glClearColor(float noundef 0.000000e+00, float noundef 0.000000e+00, float noundef 0.000000e+00, float noundef 0.000000e+00)
  call void @llvm.memcpy.p0.p0.i64(ptr noundef nonnull align 16 dereferenceable(16) %3, ptr noundef nonnull align 16 dereferenceable(16) @__const._ZN12RenderHelper12initializeGLEPFbiPKcE.light_position, i64 16, i1 false)
  call void @llvm.memcpy.p0.p0.i64(ptr noundef nonnull align 16 dereferenceable(16) %4, ptr noundef nonnull align 16 dereferenceable(16) @__const._ZN12RenderHelper12initializeGLEPFbiPKcE.light_ambient, i64 16, i1 false)
  call void @llvm.memcpy.p0.p0.i64(ptr noundef nonnull align 16 dereferenceable(16) %5, ptr noundef nonnull align 16 dereferenceable(16) @__const._ZN12RenderHelper12initializeGLEPFbiPKcE.light_diffuse, i64 16, i1 false)
  call void @llvm.memcpy.p0.p0.i64(ptr noundef nonnull align 16 dereferenceable(16) %6, ptr noundef nonnull align 16 dereferenceable(16) @__const._ZN12RenderHelper12initializeGLEPFbiPKcE.light_specular, i64 16, i1 false)
  tail call void @glEnable(i32 noundef 2896)
  call void @glLightfv(i32 noundef 16384, i32 noundef 4611, ptr noundef nonnull %3)
  call void @glLightfv(i32 noundef 16384, i32 noundef 4608, ptr noundef nonnull %4)
  call void @glLightfv(i32 noundef 16384, i32 noundef 4609, ptr noundef nonnull %5)
  call void @glLightfv(i32 noundef 16384, i32 noundef 4610, ptr noundef nonnull %6)
  call void @glEnable(i32 noundef 16384)
  call void @glDisable(i32 noundef 2896)
  call void @glEnable(i32 noundef 2929)
  call void @glEnable(i32 noundef 2884)
  call void @glEnable(i32 noundef 2977)
  call void @glDepthRange(double noundef 0.000000e+00, double noundef 1.000000e+00)
  call void @glBlendFunc(i32 noundef 770, i32 noundef 771)
  call void @glEnable(i32 noundef 3042)
  call void @glHint(i32 noundef 3155, i32 noundef 4354)
  call void @glEnable(i32 noundef 2881)
  call void @glShadeModel(i32 noundef 7425)
  call void @glDisable(i32 noundef 2881)
  br i1 %.not, label %28, label %26

26:                                               ; preds = %25
  %27 = call noundef zeroext i1 %1(i32 noundef 10, ptr noundef nonnull @.str.22)
  br label %28

28:                                               ; preds = %26, %25
  %29 = call noundef i32 @_ZN12RenderHelper13createShadersEPKcS1_(ptr nonnull align 8 poison, ptr noundef nonnull @.str.23, ptr noundef nonnull @.str.24)
  %30 = getelementptr inbounds i8, ptr %0, i64 16
  store i32 %29, ptr %30, align 8
  %31 = call noundef i32 @_ZN12RenderHelper13createShadersEPKcS1_(ptr nonnull align 8 poison, ptr noundef nonnull @.str.25, ptr noundef nonnull @.str.26)
  %32 = getelementptr inbounds i8, ptr %0, i64 20
  store i32 %31, ptr %32, align 4
  %33 = call noundef i32 @_ZN12RenderHelper13createShadersEPKcS1_(ptr nonnull align 8 poison, ptr noundef nonnull @.str.27, ptr noundef nonnull @.str.28)
  %34 = getelementptr inbounds i8, ptr %0, i64 24
  store i32 %33, ptr %34, align 8
  %35 = load ptr, ptr @__glewGenBuffersARB, align 8
  call void %35(i32 noundef 1, ptr noundef nonnull %0)
  %36 = load ptr, ptr @__glewGenBuffersARB, align 8
  %37 = getelementptr inbounds i8, ptr %0, i64 4
  call void %36(i32 noundef 1, ptr noundef nonnull %37)
  %38 = load ptr, ptr @__glewGenBuffersARB, align 8
  %39 = getelementptr inbounds i8, ptr %0, i64 8
  call void %38(i32 noundef 1, ptr noundef nonnull %39)
  %40 = load ptr, ptr @__glewGenBuffersARB, align 8
  %41 = getelementptr inbounds i8, ptr %0, i64 12
  call void %40(i32 noundef 1, ptr noundef nonnull %41)
  br i1 %.not, label %44, label %42

42:                                               ; preds = %28
  %43 = call noundef zeroext i1 %1(i32 noundef 20, ptr noundef nonnull @.str.29)
  br label %44

44:                                               ; preds = %28, %42, %23, %21, %11, %9
  %.0 = phi i32 [ -1, %9 ], [ -1, %11 ], [ -1, %21 ], [ -1, %23 ], [ 0, %42 ], [ 0, %28 ]
  ret i32 %.0
}